; Function Attrs: mustprogress uwtable
define void @_ZN6icu_7515AlphabeticIndex9separatedERKNS_13UnicodeStringE(ptr noalias sret(%"class.icu_75::UnicodeString") align 8 %agg.result, ptr noundef nonnull align 8 dereferenceable(64) %item) local_unnamed_addr #3 align 2 personality ptr @__gxx_personality_v0 {
invoke.cont:
  %srcChar.addr.i = alloca i16, align 2
  store ptr getelementptr inbounds ({ [13 x ptr] }, ptr @_ZTVN6icu_7513UnicodeStringE, i64 0, i32 0, i64 2), ptr %agg.result, align 8
  %fUnion2.i = getelementptr inbounds i8, ptr %agg.result, i64 8
  store i16 2, ptr %fUnion2.i, align 8
  %fUnion.i.i = getelementptr inbounds i8, ptr %item, i64 8
  %0 = load i16, ptr %fUnion.i.i, align 8
  %cmp.i.i = icmp slt i16 %0, 0
  %1 = ashr i16 %0, 5
  %shr.i.i = sext i16 %1 to i32
  %fLength.i = getelementptr inbounds i8, ptr %item, i64 12
  %2 = load i32, ptr %fLength.i, align 4
  %cond.i = select i1 %cmp.i.i, i32 %2, i32 %shr.i.i
  %cmp = icmp eq i32 %cond.i, 0
  br i1 %cmp, label %nrvo.skipdtor, label %for.cond

lpad:                                             ; preds = %if.end11, %invoke.cont3, %invoke.cont1, %for.cond
  %3 = landingpad { ptr, i32 }
          cleanup
  call void @_ZN6icu_7513UnicodeStringD1Ev(ptr noundef nonnull align 8 dereferenceable(64) %agg.result) #16
  resume { ptr, i32 } %3

for.cond:                                         ; preds = %invoke.cont, %_ZN6icu_7513UnicodeString6appendEDs.exit
  %i.0 = phi i32 [ %call6, %_ZN6icu_7513UnicodeString6appendEDs.exit ], [ 0, %invoke.cont ]
  %call2 = invoke noundef i32 @_ZNK6icu_7513UnicodeString8char32AtEi(ptr noundef nonnull align 8 dereferenceable(64) %item, i32 noundef %i.0)
          to label %invoke.cont1 unwind label %lpad

invoke.cont1:                                     ; preds = %for.cond
  %call4 = invoke noundef nonnull align 8 dereferenceable(64) ptr @_ZN6icu_7513UnicodeString6appendEi(ptr noundef nonnull align 8 dereferenceable(64) %agg.result, i32 noundef %call2)
          to label %invoke.cont3 unwind label %lpad

invoke.cont3:                                     ; preds = %invoke.cont1
  %call6 = invoke noundef i32 @_ZNK6icu_7513UnicodeString11moveIndex32Eii(ptr noundef nonnull align 8 dereferenceable(64) %item, i32 noundef %i.0, i32 noundef 1)
          to label %invoke.cont7 unwind label %lpad

invoke.cont7:                                     ; preds = %invoke.cont3
  %4 = load i16, ptr %fUnion.i.i, align 8
  %cmp.i.i7 = icmp slt i16 %4, 0
  %5 = ashr i16 %4, 5
  %shr.i.i8 = sext i16 %5 to i32
  %6 = load i32, ptr %fLength.i, align 4
  %cond.i10 = select i1 %cmp.i.i7, i32 %6, i32 %shr.i.i8
  %cmp9.not = icmp slt i32 %call6, %cond.i10
  br i1 %cmp9.not, label %if.end11, label %nrvo.skipdtor

if.end11:                                         ; preds = %invoke.cont7
  call void @llvm.lifetime.start.p0(i64 2, ptr nonnull %srcChar.addr.i)
  store i16 847, ptr %srcChar.addr.i, align 2
  %call.i11 = invoke noundef nonnull align 8 dereferenceable(64) ptr @_ZN6icu_7513UnicodeString8doAppendEPKDsii(ptr noundef nonnull align 8 dereferenceable(64) %agg.result, ptr noundef nonnull %srcChar.addr.i, i32 noundef 0, i32 noundef 1)
          to label %_ZN6icu_7513UnicodeString6appendEDs.exit unwind label %lpad

_ZN6icu_7513UnicodeString6appendEDs.exit:         ; preds = %if.end11
  call void @llvm.lifetime.end.p0(i64 2, ptr nonnull %srcChar.addr.i)
  br label %for.cond

nrvo.skipdtor:                                    ; preds = %invoke.cont7, %invoke.cont
  ret void
}